target datalayout = "e-m:e-p270:32:32-p271:32:32-p272:64:64-i64:64-i128:128-f80:128-n8:16:32:64-S128"
target triple = "x86_64-pc-linux-gnu"

%struct._zend_refcounted_h = type { i32, %union.anon }
%union.anon = type { i32 }
%struct._zval_struct = type { %union._zend_value, %union.anon.3, %union.anon.6 }
%union._zend_value = type { i64 }
%union.anon.3 = type { i32 }
%union.anon.6 = type { i32 }
%struct._zend_ast_zval = type { i16, i16, %struct._zval_struct }
%struct._zend_ast = type { i16, i16, i32, [1 x ptr] }
%struct.const_expr_context = type { i8 }
%struct._zend_refcounted = type { %struct._zend_refcounted_h }

; Function Attrs: nounwind uwtable
define hidden void @zend_const_expr_to_zval(ptr noundef %0, ptr noundef %1, i1 noundef zeroext %2) #0 {
  %4 = alloca ptr, align 8
  %5 = alloca ptr, align 8
  %6 = alloca ptr, align 8
  %7 = alloca ptr, align 8
  %8 = alloca i8, align 1
  %9 = alloca %struct.const_expr_context, align 1
  %10 = alloca %struct._zval_struct, align 8
  %11 = alloca ptr, align 8
  %12 = alloca ptr, align 8
  %13 = alloca ptr, align 8
  %14 = alloca ptr, align 8
  %15 = alloca i32, align 4
  store ptr %0, ptr %6, align 8
  store ptr %1, ptr %7, align 8
  %16 = zext i1 %2 to i8
  store i8 %16, ptr %8, align 1
  %17 = load i8, ptr %8, align 1
  %18 = trunc i8 %17 to i1
  %19 = getelementptr inbounds %struct.const_expr_context, ptr %9, i32 0, i32 0
  %20 = zext i1 %18 to i8
  store i8 %20, ptr %19, align 1
  %21 = load ptr, ptr %7, align 8
  call void @zend_eval_const_expr(ptr noundef %21)
  %22 = load ptr, ptr %7, align 8
  call void @zend_compile_const_expr(ptr noundef %22, ptr noundef %9)
  %23 = load ptr, ptr %7, align 8
  %24 = load ptr, ptr %23, align 8
  %25 = getelementptr inbounds %struct._zend_ast, ptr %24, i32 0, i32 0
  %26 = load i16, ptr %25, align 8
  %27 = zext i16 %26 to i32
  %28 = icmp ne i32 %27, 64
  br i1 %28, label %29, label %43

29:                                               ; preds = %3
  br label %30

30:                                               ; preds = %29
  store ptr %10, ptr %11, align 8
  %31 = load ptr, ptr %7, align 8
  %32 = load ptr, ptr %31, align 8
  %33 = call ptr @zend_ast_copy(ptr noundef %32)
  %34 = load ptr, ptr %11, align 8
  %35 = getelementptr inbounds %struct._zval_struct, ptr %34, i32 0, i32 0
  store ptr %33, ptr %35, align 8
  %36 = load ptr, ptr %11, align 8
  %37 = getelementptr inbounds %struct._zval_struct, ptr %36, i32 0, i32 1
  store i32 267, ptr %37, align 8
  br label %38

38:                                               ; preds = %30
  %39 = load ptr, ptr %7, align 8
  %40 = load ptr, ptr %39, align 8
  call void @zend_ast_destroy(ptr noundef %40)
  %41 = call ptr @zend_ast_create_zval(ptr noundef %10)
  %42 = load ptr, ptr %7, align 8
  store ptr %41, ptr %42, align 8
  br label %43

43:                                               ; preds = %38, %3
  br label %44

44:                                               ; preds = %43
  %45 = load ptr, ptr %6, align 8
  store ptr %45, ptr %12, align 8
  %46 = load ptr, ptr %7, align 8
  %47 = load ptr, ptr %46, align 8
  store ptr %47, ptr %5, align 8
  %48 = load ptr, ptr %5, align 8
  %49 = load i16, ptr %48, align 8
  %50 = zext i16 %49 to i32
  %51 = icmp eq i32 %50, 64
  call void @llvm.assume(i1 %51)
  %52 = load ptr, ptr %5, align 8
  %53 = getelementptr inbounds %struct._zend_ast_zval, ptr %52, i32 0, i32 2
  store ptr %53, ptr %13, align 8
  %54 = load ptr, ptr %13, align 8
  %55 = getelementptr inbounds %struct._zval_struct, ptr %54, i32 0, i32 0
  %56 = load ptr, ptr %55, align 8
  store ptr %56, ptr %14, align 8
  %57 = load ptr, ptr %13, align 8
  %58 = getelementptr inbounds %struct._zval_struct, ptr %57, i32 0, i32 1
  %59 = load i32, ptr %58, align 8
  store i32 %59, ptr %15, align 4
  br label %60

60:                                               ; preds = %44
  %61 = load ptr, ptr %14, align 8
  %62 = load ptr, ptr %12, align 8
  %63 = getelementptr inbounds %struct._zval_struct, ptr %62, i32 0, i32 0
  store ptr %61, ptr %63, align 8
  %64 = load i32, ptr %15, align 4
  %65 = load ptr, ptr %12, align 8
  %66 = getelementptr inbounds %struct._zval_struct, ptr %65, i32 0, i32 1
  store i32 %64, ptr %66, align 8
  br label %67

67:                                               ; preds = %60
  %68 = load i32, ptr %15, align 4
  %69 = and i32 %68, 65280
  %70 = icmp ne i32 %69, 0
  br i1 %70, label %71, label %77

71:                                               ; preds = %67
  %72 = load ptr, ptr %14, align 8
  %73 = getelementptr inbounds %struct._zend_refcounted, ptr %72, i32 0, i32 0
  store ptr %73, ptr %4, align 8
  %74 = load ptr, ptr %4, align 8
  %75 = load i32, ptr %74, align 4
  %76 = add i32 %75, 1
  store i32 %76, ptr %74, align 4
  br label %77

77:                                               ; preds = %71, %67
  br label %78

78:                                               ; preds = %77
  ret void
}