; Function Attrs: nounwind uwtable
define hidden void @zend_const_expr_to_zval(ptr nocapture noundef writeonly %0, ptr nocapture noundef %1, i1 noundef zeroext %2) local_unnamed_addr #0 {
  %4 = alloca %struct.const_expr_context, align 1
  %5 = alloca %struct._zval_struct, align 8
  %6 = zext i1 %2 to i8
  store i8 %6, ptr %4, align 1
  tail call fastcc void @zend_eval_const_expr(ptr noundef %1)
  call void @zend_compile_const_expr(ptr noundef %1, ptr noundef nonnull %4)
  %7 = load ptr, ptr %1, align 8
  %8 = load i16, ptr %7, align 8
  %.not = icmp eq i16 %8, 64
  br i1 %.not, label %15, label %9

9:                                                ; preds = %3
  %10 = call ptr @zend_ast_copy(ptr noundef nonnull %7) #30
  store ptr %10, ptr %5, align 8
  %11 = getelementptr inbounds i8, ptr %5, i64 8
  store i32 267, ptr %11, align 8
  %12 = load ptr, ptr %1, align 8
  call void @zend_ast_destroy(ptr noundef %12) #30
  %13 = call ptr @zend_ast_create_zval(ptr noundef nonnull %5) #30
  store ptr %13, ptr %1, align 8
  %.pre = load i16, ptr %13, align 8
  %14 = icmp eq i16 %.pre, 64
  br label %15

15:                                               ; preds = %3, %9
  %16 = phi i1 [ true, %3 ], [ %14, %9 ]
  %17 = phi ptr [ %7, %3 ], [ %13, %9 ]
  call void @llvm.assume(i1 %16)
  %18 = getelementptr inbounds i8, ptr %17, i64 8
  %19 = load ptr, ptr %18, align 8
  %20 = getelementptr inbounds i8, ptr %17, i64 16
  %21 = load i32, ptr %20, align 8
  store ptr %19, ptr %0, align 8
  %22 = getelementptr inbounds i8, ptr %0, i64 8
  store i32 %21, ptr %22, align 8
  %23 = and i32 %21, 65280
  %.not21 = icmp eq i32 %23, 0
  br i1 %.not21, label %27, label %24

24:                                               ; preds = %15
  %25 = load i32, ptr %19, align 4
  %26 = add i32 %25, 1
  store i32 %26, ptr %19, align 4
  br label %27

27:                                               ; preds = %15, %24
  ret void
}